; ModuleID = '55/217.c'
source_filename = "55/217.c"
target datalayout = "e-m:e-p270:32:32-p271:32:32-p272:64:64-i64:64-f80:128-n8:16:32:64-S128"
target triple = "x86_64-pc-linux-gnu"

@.str = private unnamed_addr constant [3 x i8] c"%d\00", align 1
@.str.1 = private unnamed_addr constant [3 x i8] c"%s\00", align 1
@.str.2 = private unnamed_addr constant [2 x i8] c"0\00", align 1
@.str.3 = private unnamed_addr constant [3 x i8] c"%c\00", align 1

; Function Attrs: noinline nounwind uwtable
define dso_local void @main() #0 {
  %1 = alloca i64, align 8
  %2 = alloca [50 x i8], align 16
  %3 = alloca [50 x i8], align 16
  %4 = alloca i32, align 4
  %5 = alloca i32, align 4
  %6 = alloca i32, align 4
  %7 = alloca i32, align 4
  %8 = alloca i32, align 4
  store i64 0, i64* %1, align 8
  store i32 0, i32* %7, align 4
  %9 = call i32 (i8*, ...) @__isoc99_scanf(i8* getelementptr inbounds ([3 x i8], [3 x i8]* @.str, i64 0, i64 0), i32* %4)
  %10 = getelementptr inbounds [50 x i8], [50 x i8]* %2, i64 0, i64 0
  %11 = call i32 (i8*, ...) @__isoc99_scanf(i8* getelementptr inbounds ([3 x i8], [3 x i8]* @.str.1, i64 0, i64 0), i8* %10)
  %12 = call i32 (i8*, ...) @__isoc99_scanf(i8* getelementptr inbounds ([3 x i8], [3 x i8]* @.str, i64 0, i64 0), i32* %5)
  store i32 0, i32* %6, align 4
  br label %13

13:                                               ; preds = %100, %0
  %14 = load i32, i32* %6, align 4
  %15 = sext i32 %14 to i64
  %16 = getelementptr inbounds [50 x i8], [50 x i8]* %2, i64 0, i64 %15
  %17 = load i8, i8* %16, align 1
  %18 = sext i8 %17 to i32
  %19 = icmp ne i32 %18, 0
  br i1 %19, label %20, label %103

20:                                               ; preds = %13
  %21 = load i32, i32* %6, align 4
  %22 = sext i32 %21 to i64
  %23 = getelementptr inbounds [50 x i8], [50 x i8]* %2, i64 0, i64 %22
  %24 = load i8, i8* %23, align 1
  %25 = sext i8 %24 to i32
  %26 = icmp sge i32 %25, 97
  br i1 %26, label %27, label %46

27:                                               ; preds = %20
  %28 = load i32, i32* %6, align 4
  %29 = sext i32 %28 to i64
  %30 = getelementptr inbounds [50 x i8], [50 x i8]* %2, i64 0, i64 %29
  %31 = load i8, i8* %30, align 1
  %32 = sext i8 %31 to i32
  %33 = icmp sle i32 %32, 122
  br i1 %33, label %34, label %46

34:                                               ; preds = %27
  %35 = load i32, i32* %6, align 4
  %36 = sext i32 %35 to i64
  %37 = getelementptr inbounds [50 x i8], [50 x i8]* %2, i64 0, i64 %36
  %38 = load i8, i8* %37, align 1
  %39 = sext i8 %38 to i32
  %40 = sub nsw i32 %39, 97
  %41 = add nsw i32 %40, 10
  %42 = trunc i32 %41 to i8
  %43 = load i32, i32* %6, align 4
  %44 = sext i32 %43 to i64
  %45 = getelementptr inbounds [50 x i8], [50 x i8]* %2, i64 0, i64 %44
  store i8 %42, i8* %45, align 1
  br label %99

46:                                               ; preds = %27, %20
  %47 = load i32, i32* %6, align 4
  %48 = sext i32 %47 to i64
  %49 = getelementptr inbounds [50 x i8], [50 x i8]* %2, i64 0, i64 %48
  %50 = load i8, i8* %49, align 1
  %51 = sext i8 %50 to i32
  %52 = icmp sge i32 %51, 65
  br i1 %52, label %53, label %72

53:                                               ; preds = %46
  %54 = load i32, i32* %6, align 4
  %55 = sext i32 %54 to i64
  %56 = getelementptr inbounds [50 x i8], [50 x i8]* %2, i64 0, i64 %55
  %57 = load i8, i8* %56, align 1
  %58 = sext i8 %57 to i32
  %59 = icmp sle i32 %58, 90
  br i1 %59, label %60, label %72

60:                                               ; preds = %53
  %61 = load i32, i32* %6, align 4
  %62 = sext i32 %61 to i64
  %63 = getelementptr inbounds [50 x i8], [50 x i8]* %2, i64 0, i64 %62
  %64 = load i8, i8* %63, align 1
  %65 = sext i8 %64 to i32
  %66 = sub nsw i32 %65, 65
  %67 = add nsw i32 %66, 10
  %68 = trunc i32 %67 to i8
  %69 = load i32, i32* %6, align 4
  %70 = sext i32 %69 to i64
  %71 = getelementptr inbounds [50 x i8], [50 x i8]* %2, i64 0, i64 %70
  store i8 %68, i8* %71, align 1
  br label %98

72:                                               ; preds = %53, %46
  %73 = load i32, i32* %6, align 4
  %74 = sext i32 %73 to i64
  %75 = getelementptr inbounds [50 x i8], [50 x i8]* %2, i64 0, i64 %74
  %76 = load i8, i8* %75, align 1
  %77 = sext i8 %76 to i32
  %78 = icmp sge i32 %77, 48
  br i1 %78, label %79, label %97

79:                                               ; preds = %72
  %80 = load i32, i32* %6, align 4
  %81 = sext i32 %80 to i64
  %82 = getelementptr inbounds [50 x i8], [50 x i8]* %2, i64 0, i64 %81
  %83 = load i8, i8* %82, align 1
  %84 = sext i8 %83 to i32
  %85 = icmp sle i32 %84, 57
  br i1 %85, label %86, label %97

86:                                               ; preds = %79
  %87 = load i32, i32* %6, align 4
  %88 = sext i32 %87 to i64
  %89 = getelementptr inbounds [50 x i8], [50 x i8]* %2, i64 0, i64 %88
  %90 = load i8, i8* %89, align 1
  %91 = sext i8 %90 to i32
  %92 = sub nsw i32 %91, 48
  %93 = trunc i32 %92 to i8
  %94 = load i32, i32* %6, align 4
  %95 = sext i32 %94 to i64
  %96 = getelementptr inbounds [50 x i8], [50 x i8]* %2, i64 0, i64 %95
  store i8 %93, i8* %96, align 1
  br label %97

97:                                               ; preds = %86, %79, %72
  br label %98

98:                                               ; preds = %97, %60
  br label %99

99:                                               ; preds = %98, %34
  br label %100

100:                                              ; preds = %99
  %101 = load i32, i32* %6, align 4
  %102 = add nsw i32 %101, 1
  store i32 %102, i32* %6, align 4
  br label %13

103:                                              ; preds = %13
  store i32 0, i32* %6, align 4
  br label %104

104:                                              ; preds = %122, %103
  %105 = load i32, i32* %6, align 4
  %106 = sext i32 %105 to i64
  %107 = getelementptr inbounds [50 x i8], [50 x i8]* %2, i64 0, i64 %106
  %108 = load i8, i8* %107, align 1
  %109 = sext i8 %108 to i32
  %110 = icmp ne i32 %109, 0
  br i1 %110, label %111, label %125

111:                                              ; preds = %104
  %112 = load i64, i64* %1, align 8
  %113 = load i32, i32* %4, align 4
  %114 = sext i32 %113 to i64
  %115 = mul nsw i64 %112, %114
  %116 = load i32, i32* %6, align 4
  %117 = sext i32 %116 to i64
  %118 = getelementptr inbounds [50 x i8], [50 x i8]* %2, i64 0, i64 %117
  %119 = load i8, i8* %118, align 1
  %120 = sext i8 %119 to i64
  %121 = add nsw i64 %115, %120
  store i64 %121, i64* %1, align 8
  br label %122

122:                                              ; preds = %111
  %123 = load i32, i32* %6, align 4
  %124 = add nsw i32 %123, 1
  store i32 %124, i32* %6, align 4
  br label %104

125:                                              ; preds = %104
  store i32 49, i32* %6, align 4
  br label %126

126:                                              ; preds = %142, %125
  %127 = load i32, i32* %6, align 4
  %128 = icmp sge i32 %127, 0
  br i1 %128, label %129, label %145

129:                                              ; preds = %126
  %130 = load i64, i64* %1, align 8
  %131 = load i32, i32* %5, align 4
  %132 = sext i32 %131 to i64
  %133 = srem i64 %130, %132
  %134 = trunc i64 %133 to i8
  %135 = load i32, i32* %6, align 4
  %136 = sext i32 %135 to i64
  %137 = getelementptr inbounds [50 x i8], [50 x i8]* %3, i64 0, i64 %136
  store i8 %134, i8* %137, align 1
  %138 = load i64, i64* %1, align 8
  %139 = load i32, i32* %5, align 4
  %140 = sext i32 %139 to i64
  %141 = sdiv i64 %138, %140
  store i64 %141, i64* %1, align 8
  br label %142

142:                                              ; preds = %129
  %143 = load i32, i32* %6, align 4
  %144 = add nsw i32 %143, -1
  store i32 %144, i32* %6, align 4
  br label %126

145:                                              ; preds = %126
  store i32 0, i32* %6, align 4
  br label %146

146:                                              ; preds = %169, %145
  %147 = load i32, i32* %7, align 4
  %148 = icmp eq i32 %147, 0
  br i1 %148, label %149, label %170

149:                                              ; preds = %146
  %150 = load i32, i32* %6, align 4
  %151 = sext i32 %150 to i64
  %152 = getelementptr inbounds [50 x i8], [50 x i8]* %3, i64 0, i64 %151
  %153 = load i8, i8* %152, align 1
  %154 = sext i8 %153 to i32
  %155 = icmp eq i32 %154, 0
  br i1 %155, label %156, label %159

156:                                              ; preds = %149
  %157 = load i32, i32* %6, align 4
  %158 = add nsw i32 %157, 1
  store i32 %158, i32* %6, align 4
  br label %162

159:                                              ; preds = %149
  %160 = load i32, i32* %7, align 4
  %161 = add nsw i32 %160, 1
  store i32 %161, i32* %7, align 4
  br label %162

162:                                              ; preds = %159, %156
  %163 = load i32, i32* %6, align 4
  %164 = icmp eq i32 %163, 50
  br i1 %164, label %165, label %169

165:                                              ; preds = %162
  %166 = call i32 (i8*, ...) @printf(i8* getelementptr inbounds ([2 x i8], [2 x i8]* @.str.2, i64 0, i64 0))
  %167 = load i32, i32* %7, align 4
  %168 = add nsw i32 %167, 1
  store i32 %168, i32* %7, align 4
  br label %169

169:                                              ; preds = %165, %162
  br label %146

170:                                              ; preds = %146
  %171 = load i32, i32* %6, align 4
  store i32 %171, i32* %8, align 4
  br label %172

172:                                              ; preds = %219, %170
  %173 = load i32, i32* %8, align 4
  %174 = icmp sle i32 %173, 49
  br i1 %174, label %175, label %222

175:                                              ; preds = %172
  %176 = load i32, i32* %8, align 4
  %177 = sext i32 %176 to i64
  %178 = getelementptr inbounds [50 x i8], [50 x i8]* %3, i64 0, i64 %177
  %179 = load i8, i8* %178, align 1
  %180 = sext i8 %179 to i32
  %181 = icmp sge i32 %180, 10
  br i1 %181, label %182, label %201

182:                                              ; preds = %175
  %183 = load i32, i32* %8, align 4
  %184 = sext i32 %183 to i64
  %185 = getelementptr inbounds [50 x i8], [50 x i8]* %3, i64 0, i64 %184
  %186 = load i8, i8* %185, align 1
  %187 = sext i8 %186 to i32
  %188 = icmp sle i32 %187, 35
  br i1 %188, label %189, label %201

189:                                              ; preds = %182
  %190 = load i32, i32* %8, align 4
  %191 = sext i32 %190 to i64
  %192 = getelementptr inbounds [50 x i8], [50 x i8]* %3, i64 0, i64 %191
  %193 = load i8, i8* %192, align 1
  %194 = sext i8 %193 to i32
  %195 = add nsw i32 %194, 65
  %196 = sub nsw i32 %195, 10
  %197 = trunc i32 %196 to i8
  %198 = load i32, i32* %8, align 4
  %199 = sext i32 %198 to i64
  %200 = getelementptr inbounds [50 x i8], [50 x i8]* %3, i64 0, i64 %199
  store i8 %197, i8* %200, align 1
  br label %212

201:                                              ; preds = %182, %175
  %202 = load i32, i32* %8, align 4
  %203 = sext i32 %202 to i64
  %204 = getelementptr inbounds [50 x i8], [50 x i8]* %3, i64 0, i64 %203
  %205 = load i8, i8* %204, align 1
  %206 = sext i8 %205 to i32
  %207 = add nsw i32 %206, 48
  %208 = trunc i32 %207 to i8
  %209 = load i32, i32* %8, align 4
  %210 = sext i32 %209 to i64
  %211 = getelementptr inbounds [50 x i8], [50 x i8]* %3, i64 0, i64 %210
  store i8 %208, i8* %211, align 1
  br label %212

212:                                              ; preds = %201, %189
  %213 = load i32, i32* %8, align 4
  %214 = sext i32 %213 to i64
  %215 = getelementptr inbounds [50 x i8], [50 x i8]* %3, i64 0, i64 %214
  %216 = load i8, i8* %215, align 1
  %217 = sext i8 %216 to i32
  %218 = call i32 (i8*, ...) @printf(i8* getelementptr inbounds ([3 x i8], [3 x i8]* @.str.3, i64 0, i64 0), i32 %217)
  br label %219

219:                                              ; preds = %212
  %220 = load i32, i32* %8, align 4
  %221 = add nsw i32 %220, 1
  store i32 %221, i32* %8, align 4
  br label %172

222:                                              ; preds = %172
  ret void
}

declare dso_local i32 @__isoc99_scanf(i8*, ...) #1

declare dso_local i32 @printf(i8*, ...) #1


!llvm.module.flags = !{!0}
!llvm.ident = !{!1}

!0 = !{i32 1, !"wchar_size", i32 4}
!1 = !{!"clang version 10.0.0-4ubuntu1 "}
